target datalayout = "e-m:e-p270:32:32-p271:32:32-p272:64:64-i64:64-i128:128-f80:128-n8:16:32:64-S128"
target triple = "x86_64-pc-linux-gnu"

@.str.33 = private unnamed_addr constant [3 x i8] c"rb\00", align 1
@.str.34 = private unnamed_addr constant [35 x i8] c"Input file \22%s\22 cannot be opened.\0A\00", align 1
@.str.35 = private unnamed_addr constant [3 x i8] c"wb\00", align 1
@.str.36 = private unnamed_addr constant [36 x i8] c"Output file \22%s\22 cannot be opened.\0A\00", align 1
@.str.37 = private unnamed_addr constant [37 x i8] c"Reading input file \22%s\22 has failed.\0A\00", align 1

; Function Attrs: nounwind uwtable
define void @Abc_NtkConvertBb2Wb(ptr noundef %0, ptr noundef %1, i32 noundef %2, i32 noundef %3) #0 {
  %5 = alloca ptr, align 8
  %6 = alloca ptr, align 8
  %7 = alloca i32, align 4
  %8 = alloca i32, align 4
  %9 = alloca ptr, align 8
  %10 = alloca ptr, align 8
  store ptr %0, ptr %5, align 8
  store ptr %1, ptr %6, align 8
  store i32 %2, ptr %7, align 4
  store i32 %3, ptr %8, align 4
  %11 = load ptr, ptr %5, align 8
  %12 = call noalias ptr @fopen(ptr noundef %11, ptr noundef @.str.33)
  store ptr %12, ptr %9, align 8
  %13 = load ptr, ptr %9, align 8
  %14 = icmp eq ptr %13, null
  br i1 %14, label %15, label %18

15:                                               ; preds = %4
  %16 = load ptr, ptr %5, align 8
  %17 = call i32 (ptr, ...) @printf(ptr noundef @.str.34, ptr noundef %16)
  br label %45

18:                                               ; preds = %4
  %19 = load ptr, ptr %9, align 8
  %20 = call i32 @fclose(ptr noundef %19)
  %21 = load ptr, ptr %6, align 8
  %22 = call noalias ptr @fopen(ptr noundef %21, ptr noundef @.str.35)
  store ptr %22, ptr %9, align 8
  %23 = load ptr, ptr %9, align 8
  %24 = icmp eq ptr %23, null
  br i1 %24, label %25, label %28

25:                                               ; preds = %18
  %26 = load ptr, ptr %6, align 8
  %27 = call i32 (ptr, ...) @printf(ptr noundef @.str.36, ptr noundef %26)
  br label %45

28:                                               ; preds = %18
  %29 = load ptr, ptr %9, align 8
  %30 = call i32 @fclose(ptr noundef %29)
  %31 = load ptr, ptr %5, align 8
  %32 = load ptr, ptr %5, align 8
  %33 = call i32 @Io_ReadFileType(ptr noundef %32)
  %34 = call ptr @Io_ReadNetlist(ptr noundef %31, i32 noundef %33, i32 noundef 1)
  store ptr %34, ptr %10, align 8
  %35 = load ptr, ptr %10, align 8
  %36 = icmp eq ptr %35, null
  br i1 %36, label %37, label %40

37:                                               ; preds = %28
  %38 = load ptr, ptr %5, align 8
  %39 = call i32 (ptr, ...) @printf(ptr noundef @.str.37, ptr noundef %38)
  br label %45

40:                                               ; preds = %28
  %41 = load ptr, ptr %10, align 8
  %42 = load ptr, ptr %6, align 8
  %43 = load i32, ptr %7, align 4
  call void @Io_WriteBlif(ptr noundef %41, ptr noundef %42, i32 noundef 1, i32 noundef 1, i32 noundef %43)
  %44 = load ptr, ptr %10, align 8
  call void @Abc_NtkDelete(ptr noundef %44)
  br label %45

45:                                               ; preds = %40, %37, %25, %15
  ret void
}