; Function Attrs: nounwind uwtable
define void @Abc_NtkConvertBb2Wb(ptr noundef %0, ptr noundef %1, i32 noundef %2, i32 noundef %3) local_unnamed_addr #0 {
  %5 = tail call noalias ptr @fopen(ptr noundef %0, ptr noundef nonnull @.str.33)
  %6 = icmp eq ptr %5, null
  br i1 %6, label %7, label %9

7:                                                ; preds = %4
  %8 = tail call i32 (ptr, ...) @printf(ptr noundef nonnull dereferenceable(1) @.str.34, ptr noundef %0)
  br label %23

9:                                                ; preds = %4
  %10 = tail call i32 @fclose(ptr noundef nonnull %5)
  %11 = tail call noalias ptr @fopen(ptr noundef %1, ptr noundef nonnull @.str.35)
  %12 = icmp eq ptr %11, null
  br i1 %12, label %13, label %15

13:                                               ; preds = %9
  %14 = tail call i32 (ptr, ...) @printf(ptr noundef nonnull dereferenceable(1) @.str.36, ptr noundef %1)
  br label %23

15:                                               ; preds = %9
  %16 = tail call i32 @fclose(ptr noundef nonnull %11)
  %17 = tail call i32 @Io_ReadFileType(ptr noundef %0) #10
  %18 = tail call ptr @Io_ReadNetlist(ptr noundef %0, i32 noundef %17, i32 noundef 1) #10
  %19 = icmp eq ptr %18, null
  br i1 %19, label %20, label %22

20:                                               ; preds = %15
  %21 = tail call i32 (ptr, ...) @printf(ptr noundef nonnull dereferenceable(1) @.str.37, ptr noundef %0)
  br label %23

22:                                               ; preds = %15
  tail call void @Io_WriteBlif(ptr noundef nonnull %18, ptr noundef %1, i32 noundef 1, i32 noundef 1, i32 noundef %2)
  tail call void @Abc_NtkDelete(ptr noundef nonnull %18) #10
  br label %23

23:                                               ; preds = %22, %20, %13, %7
  ret void
}